target datalayout = "e-m:e-p270:32:32-p271:32:32-p272:64:64-i64:64-i128:128-f80:128-n8:16:32:64-S128"
target triple = "x86_64-pc-linux-gnu"

%struct.evp_cipher_ctx_st = type { ptr, ptr, i32, i32, [16 x i8], [16 x i8], [32 x i8], i32, ptr, i32, i32, i64, ptr, i32, i32, [32 x i8], i64, ptr, ptr }
%struct.EVP_ARIA_GCM_CTX = type { %union.anon, i32, i32, %struct.gcm128_context, ptr, i32, i32, i32, i32 }
%union.anon = type { double, [272 x i8] }
%struct.gcm128_context = type { %union.anon.0, %union.anon.0, %union.anon.0, %union.anon.0, %union.anon.0, %union.anon.0, [16 x %struct.u128], %struct.gcm_funcs_st, i32, i32, ptr, ptr, [48 x i8] }
%union.anon.0 = type { [2 x i64] }
%struct.u128 = type { i64, i64 }
%struct.gcm_funcs_st = type { ptr, ptr, ptr }

@.str = private unnamed_addr constant [31 x i8] c"../openssl/crypto/evp/e_aria.c\00", align 1

; Function Attrs: nounwind uwtable
define internal i32 @aria_gcm_cleanup(ptr noundef %0) #0 {
  %2 = alloca ptr, align 8
  %3 = alloca ptr, align 8
  store ptr %0, ptr %2, align 8, !tbaa !3
  call void @llvm.lifetime.start.p0(i64 8, ptr %3) #4
  %4 = load ptr, ptr %2, align 8, !tbaa !3
  %5 = call ptr @EVP_CIPHER_CTX_get_cipher_data(ptr noundef %4)
  store ptr %5, ptr %3, align 8, !tbaa !41
  %6 = load ptr, ptr %3, align 8, !tbaa !41
  %7 = getelementptr inbounds nuw %struct.EVP_ARIA_GCM_CTX, ptr %6, i32 0, i32 4
  %8 = load ptr, ptr %7, align 8, !tbaa !46
  %9 = load ptr, ptr %2, align 8, !tbaa !3
  %10 = getelementptr inbounds nuw %struct.evp_cipher_ctx_st, ptr %9, i32 0, i32 5
  %11 = getelementptr inbounds [16 x i8], ptr %10, i64 0, i64 0
  %12 = icmp ne ptr %8, %11
  br i1 %12, label %13, label %17

13:                                               ; preds = %1
  %14 = load ptr, ptr %3, align 8, !tbaa !41
  %15 = getelementptr inbounds nuw %struct.EVP_ARIA_GCM_CTX, ptr %14, i32 0, i32 4
  %16 = load ptr, ptr %15, align 8, !tbaa !46
  call void @CRYPTO_free(ptr noundef %16, ptr noundef @.str, i32 noundef 503)
  br label %17

17:                                               ; preds = %13, %1
  call void @llvm.lifetime.end.p0(i64 8, ptr %3) #4
  ret i32 1
}