; Function Attrs: nounwind uwtable
define internal noundef i32 @aria_gcm_cleanup(ptr noundef %0) #1 {
  %2 = tail call ptr @EVP_CIPHER_CTX_get_cipher_data(ptr noundef %0) #6
  %3 = getelementptr inbounds nuw i8, ptr %2, i64 736
  %4 = load ptr, ptr %3, align 8, !tbaa !37
  %5 = getelementptr inbounds nuw i8, ptr %0, i64 40
  %.not = icmp eq ptr %4, %5
  br i1 %.not, label %7, label %6

6:                                                ; preds = %1
  tail call void @CRYPTO_free(ptr noundef %4, ptr noundef nonnull @.str, i32 noundef 503) #6
  br label %7

7:                                                ; preds = %6, %1
  ret i32 1
}